(dp0
S'T4'
p1
ccopy_reg
_reconstructor
p2
(cros_waypoint_generator.msg._Waypoint
Waypoint
p3
c__builtin__
object
p4
Ntp5
Rp6
(lp7
g2
(cstd_msgs.msg._Header
Header
p8
g4
Ntp9
Rp10
(lp11
I0
ag2
(cgenpy.rostime
Time
p12
g4
Ntp13
Rp14
(lp15
I0
aI0
abaS''
p16
abaI8
ag2
(cgeometry_msgs.msg._Pose
Pose
p17
g4
Ntp18
Rp19
(lp20
g2
(cgeometry_msgs.msg._Point
Point
p21
g4
Ntp22
Rp23
(lp24
F1.6072816848754883
aF-0.6390420198440552
aF0.0
abag2
(cgeometry_msgs.msg._Quaternion
Quaternion
p25
g4
Ntp26
Rp27
(lp28
F0.0
aF0.0
aF0.0
aF1.0
ababaI0
aF1.5
absS'T2'
p29
g2
(g3
g4
Ntp30
Rp31
(lp32
g2
(g8
g4
Ntp33
Rp34
(lp35
I0
ag2
(g12
g4
Ntp36
Rp37
(lp38
I0
aI0
abag16
abaI12
ag2
(g17
g4
Ntp39
Rp40
(lp41
g2
(g21
g4
Ntp42
Rp43
(lp44
F1.1087062358856201
aF1.1183791160583496
aF0.0
abag2
(g25
g4
Ntp45
Rp46
(lp47
F0.0
aF0.0
aF0.0
aF1.0
ababaI0
aF1.5
absS'T3'
p48
g2
(g3
g4
Ntp49
Rp50
(lp51
g2
(g8
g4
Ntp52
Rp53
(lp54
I0
ag2
(g12
g4
Ntp55
Rp56
(lp57
I0
aI0
abag16
abaI20
ag2
(g17
g4
Ntp58
Rp59
(lp60
g2
(g21
g4
Ntp61
Rp62
(lp63
F-1.1474857330322266
aF2.227181911468506
aF0.0
abag2
(g25
g4
Ntp64
Rp65
(lp66
F0.0
aF0.0
aF0.0
aF1.0
ababaI0
aF1.5
absS'T1'
p67
g2
(g3
g4
Ntp68
Rp69
(lp70
g2
(g8
g4
Ntp71
Rp72
(lp73
I0
ag2
(g12
g4
Ntp74
Rp75
(lp76
I0
aI0
abag16
abaI0
ag2
(g17
g4
Ntp77
Rp78
(lp79
g2
(g21
g4
Ntp80
Rp81
(lp82
F-1.0860686283305794
aF-0.13293687387510256
aF0.0
abag2
(g25
g4
Ntp83
Rp84
(lp85
F0.0
aF0.0
aF-0.9956005383287669
aF0.0936993494079306
ababaI0
aF1.5
abs.