(dp0
S'HOME'
p1
ccopy_reg
_reconstructor
p2
(cros_waypoint_generator.msg._Waypoint
Waypoint
p3
c__builtin__
object
p4
Ntp5
Rp6
(lp7
g2
(cstd_msgs.msg._Header
Header
p8
g4
Ntp9
Rp10
(lp11
I0
ag2
(cgenpy.rostime
Time
p12
g4
Ntp13
Rp14
(lp15
I0
aI0
abaS''
p16
abaI0
ag2
(cgeometry_msgs.msg._Pose
Pose
p17
g4
Ntp18
Rp19
(lp20
g2
(cgeometry_msgs.msg._Point
Point
p21
g4
Ntp22
Rp23
(lp24
F-0.45791149139404297
aF1.4579646587371826
aF0.0
abag2
(cgeometry_msgs.msg._Quaternion
Quaternion
p25
g4
Ntp26
Rp27
(lp28
F0.0
aF0.0
aF0.0
aF1.0
ababaI0
aF1.5
absS'T1'
p29
g2
(g3
g4
Ntp30
Rp31
(lp32
g2
(g8
g4
Ntp33
Rp34
(lp35
I0
ag2
(g12
g4
Ntp36
Rp37
(lp38
I0
aI0
abag16
abaI4
ag2
(g17
g4
Ntp39
Rp40
(lp41
g2
(g21
g4
Ntp42
Rp43
(lp44
F-3.1537442207336426
aF2.6770691871643066
aF0.0
abag2
(g25
g4
Ntp45
Rp46
(lp47
F0.0
aF0.0
aF0.0
aF1.0
ababaI0
aF1.5
abs.