(dp0
S'T4'
p1
ccopy_reg
_reconstructor
p2
(cros_waypoint_generator.msg._Waypoint
Waypoint
p3
c__builtin__
object
p4
Ntp5
Rp6
(lp7
g2
(cstd_msgs.msg._Header
Header
p8
g4
Ntp9
Rp10
(lp11
I0
ag2
(cgenpy.rostime
Time
p12
g4
Ntp13
Rp14
(lp15
I0
aI0
abaS''
p16
abaI8
ag2
(cgeometry_msgs.msg._Pose
Pose
p17
g4
Ntp18
Rp19
(lp20
g2
(cgeometry_msgs.msg._Point
Point
p21
g4
Ntp22
Rp23
(lp24
F1.5340401133589014
aF1.804315383298621
aF0.0
abag2
(cgeometry_msgs.msg._Quaternion
Quaternion
p25
g4
Ntp26
Rp27
(lp28
F0.0
aF0.0
aF0.23764192970599943
aF0.9713528263435531
ababaI0
aF1.5
absS'T5'
p29
g2
(g3
g4
Ntp30
Rp31
(lp32
g2
(g8
g4
Ntp33
Rp34
(lp35
I0
ag2
(g12
g4
Ntp36
Rp37
(lp38
I0
aI0
abag16
abaI8
ag2
(g17
g4
Ntp39
Rp40
(lp41
g2
(g21
g4
Ntp42
Rp43
(lp44
F1.5340401133589014
aF1.804315383298621
aF0.0
abag2
(g25
g4
Ntp45
Rp46
(lp47
F0.0
aF0.0
aF0.23764192970599943
aF0.9713528263435531
ababaI0
aF1.5
absS'T2'
p48
g2
(g3
g4
Ntp49
Rp50
(lp51
g2
(g8
g4
Ntp52
Rp53
(lp54
I0
ag2
(g12
g4
Ntp55
Rp56
(lp57
I0
aI0
abag16
abaI8
ag2
(g17
g4
Ntp58
Rp59
(lp60
g2
(g21
g4
Ntp61
Rp62
(lp63
F3.157556878603178
aF-2.1228053688438453
aF0.0
abag2
(g25
g4
Ntp64
Rp65
(lp66
F0.0
aF0.0
aF0.3932161958136089
aF0.9194460415651772
ababaI0
aF1.5
absS'T3'
p67
g2
(g3
g4
Ntp68
Rp69
(lp70
g2
(g8
g4
Ntp71
Rp72
(lp73
I0
ag2
(g12
g4
Ntp74
Rp75
(lp76
I0
aI0
abag16
abaI23
ag2
(g17
g4
Ntp77
Rp78
(lp79
g2
(g21
g4
Ntp80
Rp81
(lp82
F-2.9144041957022324
aF2.880952231066754
aF0.0
abag2
(g25
g4
Ntp83
Rp84
(lp85
F0.0
aF0.0
aF0.37433937367912135
aF0.9272917735607942
ababaI0
aF1.5
absS'T1'
p86
g2
(g3
g4
Ntp87
Rp88
(lp89
g2
(g8
g4
Ntp90
Rp91
(lp92
I0
ag2
(g12
g4
Ntp93
Rp94
(lp95
I0
aI0
abag16
abaI0
ag2
(g17
g4
Ntp96
Rp97
(lp98
g2
(g21
g4
Ntp99
Rp100
(lp101
F0.17990741999457044
aF0.9998516617812717
aF0.0
abag2
(g25
g4
Ntp102
Rp103
(lp104
F0.0
aF0.0
aF0.7231029073754949
aF0.6907403168666981
ababaI0
aF1.5
absS'X2'
p105
g2
(g3
g4
Ntp106
Rp107
(lp108
g2
(g8
g4
Ntp109
Rp110
(lp111
I0
ag2
(g12
g4
Ntp112
Rp113
(lp114
I0
aI0
abag16
abaI0
ag2
(g17
g4
Ntp115
Rp116
(lp117
g2
(g21
g4
Ntp118
Rp119
(lp120
F0.13913946567244148
aF1.1428949822855539
aF0.0
abag2
(g25
g4
Ntp121
Rp122
(lp123
F0.0
aF0.0
aF0.8102378794248626
aF0.5861011676708227
ababaI0
aF1.5
absS'X1'
p124
g2
(g3
g4
Ntp125
Rp126
(lp127
g2
(g8
g4
Ntp128
Rp129
(lp130
I0
ag2
(g12
g4
Ntp131
Rp132
(lp133
I0
aI0
abag16
abaI5
ag2
(g17
g4
Ntp134
Rp135
(lp136
g2
(g21
g4
Ntp137
Rp138
(lp139
F-2.6647301835617108
aF-0.570377484314469
aF0.0
abag2
(g25
g4
Ntp140
Rp141
(lp142
F0.0
aF0.0
aF-0.9838146908872433
aF0.17918887798755234
ababaI0
aF1.5
abs.